target datalayout = "e-m:e-p270:32:32-p271:32:32-p272:64:64-i64:64-i128:128-f80:128-n8:16:32:64-S128"
target triple = "x86_64-pc-linux-gnu"

%struct.SDL_AtomicInt = type { i32 }
%struct.SDL_AudioDevice = type { ptr, ptr, %struct.SDL_AtomicInt, ptr, ptr, ptr, ptr, ptr, ptr, ptr, i32, ptr, %struct.SDL_AudioSpec, i32, ptr, %struct.SDL_AudioSpec, i32, i32, %struct.SDL_AtomicInt, %struct.SDL_AtomicInt, i8, i8, ptr, ptr, ptr, i32, ptr, i8, ptr, ptr }
%struct.SDL_AudioSpec = type { i32, i32, i32 }
%struct.SDL_PrivateAudioData = type { ptr, ptr }

@ALSA_snd_pcm_readi = internal global ptr null, align 8
@ALSA_snd_pcm_recover = internal global ptr null, align 8
@ALSA_snd_strerror = internal global ptr null, align 8
@ALSA_snd_pcm_avail = internal global ptr null, align 8
@.str.120 = private unnamed_addr constant [37 x i8] c"ALSA read failed (unrecoverable): %s\00", align 1

; Function Attrs: nounwind uwtable
define internal i32 @ALSA_RecordDevice(ptr noundef %0, ptr noundef %1, i32 noundef %2) #0 {
  %4 = alloca i32, align 4
  %5 = alloca ptr, align 8
  %6 = alloca ptr, align 8
  %7 = alloca i32, align 4
  %8 = alloca i32, align 4
  %9 = alloca i64, align 8
  %10 = alloca i32, align 4
  %11 = alloca i32, align 4
  %12 = alloca i32, align 4
  %13 = alloca i32, align 4
  store ptr %0, ptr %5, align 8
  store ptr %1, ptr %6, align 8
  store i32 %2, ptr %7, align 4
  call void @llvm.lifetime.start.p0(i64 4, ptr %8) #7
  %14 = load ptr, ptr %5, align 8
  %15 = getelementptr inbounds nuw %struct.SDL_AudioDevice, ptr %14, i32 0, i32 12
  %16 = getelementptr inbounds nuw %struct.SDL_AudioSpec, ptr %15, i32 0, i32 0
  %17 = load i32, ptr %16, align 8
  %18 = and i32 %17, 255
  %19 = udiv i32 %18, 8
  %20 = load ptr, ptr %5, align 8
  %21 = getelementptr inbounds nuw %struct.SDL_AudioDevice, ptr %20, i32 0, i32 12
  %22 = getelementptr inbounds nuw %struct.SDL_AudioSpec, ptr %21, i32 0, i32 1
  %23 = load i32, ptr %22, align 4
  %24 = mul i32 %19, %23
  store i32 %24, ptr %8, align 4
  br label %25

25:                                               ; preds = %3
  br label %26

26:                                               ; preds = %25
  br label %27

27:                                               ; preds = %26
  call void @llvm.lifetime.start.p0(i64 8, ptr %9) #7
  %28 = load ptr, ptr @ALSA_snd_pcm_avail, align 8
  %29 = load ptr, ptr %5, align 8
  %30 = getelementptr inbounds nuw %struct.SDL_AudioDevice, ptr %29, i32 0, i32 28
  %31 = load ptr, ptr %30, align 8
  %32 = getelementptr inbounds nuw %struct.SDL_PrivateAudioData, ptr %31, i32 0, i32 0
  %33 = load ptr, ptr %32, align 8
  %34 = call i64 %28(ptr noundef %33)
  store i64 %34, ptr %9, align 8
  call void @llvm.lifetime.start.p0(i64 4, ptr %10) #7
  %35 = load i32, ptr %7, align 4
  %36 = load i32, ptr %8, align 4
  %37 = sdiv i32 %35, %36
  %38 = sext i32 %37 to i64
  %39 = load i64, ptr %9, align 8
  %40 = icmp slt i64 %38, %39
  br i1 %40, label %41, label %46

41:                                               ; preds = %27
  %42 = load i32, ptr %7, align 4
  %43 = load i32, ptr %8, align 4
  %44 = sdiv i32 %42, %43
  %45 = sext i32 %44 to i64
  br label %48

46:                                               ; preds = %27
  %47 = load i64, ptr %9, align 8
  br label %48

48:                                               ; preds = %46, %41
  %49 = phi i64 [ %45, %41 ], [ %47, %46 ]
  %50 = trunc i64 %49 to i32
  store i32 %50, ptr %10, align 4
  call void @llvm.lifetime.start.p0(i64 4, ptr %11) #7
  %51 = load ptr, ptr @ALSA_snd_pcm_readi, align 8
  %52 = load ptr, ptr %5, align 8
  %53 = getelementptr inbounds nuw %struct.SDL_AudioDevice, ptr %52, i32 0, i32 28
  %54 = load ptr, ptr %53, align 8
  %55 = getelementptr inbounds nuw %struct.SDL_PrivateAudioData, ptr %54, i32 0, i32 0
  %56 = load ptr, ptr %55, align 8
  %57 = load ptr, ptr %6, align 8
  %58 = load i32, ptr %10, align 4
  %59 = sext i32 %58 to i64
  %60 = call i64 %51(ptr noundef %56, ptr noundef %57, i64 noundef %59)
  %61 = trunc i64 %60 to i32
  store i32 %61, ptr %11, align 4
  br label %62

62:                                               ; preds = %48
  br label %63

63:                                               ; preds = %62
  br label %64

64:                                               ; preds = %63
  %65 = load i32, ptr %11, align 4
  %66 = icmp slt i32 %65, 0
  br i1 %66, label %67, label %84

67:                                               ; preds = %64
  call void @llvm.lifetime.start.p0(i64 4, ptr %12) #7
  %68 = load ptr, ptr @ALSA_snd_pcm_recover, align 8
  %69 = load ptr, ptr %5, align 8
  %70 = getelementptr inbounds nuw %struct.SDL_AudioDevice, ptr %69, i32 0, i32 28
  %71 = load ptr, ptr %70, align 8
  %72 = getelementptr inbounds nuw %struct.SDL_PrivateAudioData, ptr %71, i32 0, i32 0
  %73 = load ptr, ptr %72, align 8
  %74 = load i32, ptr %11, align 4
  %75 = call i32 %68(ptr noundef %73, i32 noundef %74, i32 noundef 0)
  store i32 %75, ptr %12, align 4
  %76 = load i32, ptr %12, align 4
  %77 = icmp slt i32 %76, 0
  br i1 %77, label %78, label %82

78:                                               ; preds = %67
  %79 = load ptr, ptr @ALSA_snd_strerror, align 8
  %80 = load i32, ptr %11, align 4
  %81 = call ptr %79(i32 noundef %80)
  call void (i32, ptr, ...) @SDL_LogError_REAL(i32 noundef 4, ptr noundef @.str.120, ptr noundef %81)
  store i32 -1, ptr %4, align 4
  store i32 1, ptr %13, align 4
  br label %83

82:                                               ; preds = %67
  store i32 0, ptr %4, align 4
  store i32 1, ptr %13, align 4
  br label %83

83:                                               ; preds = %82, %78
  call void @llvm.lifetime.end.p0(i64 4, ptr %12) #7
  br label %88

84:                                               ; preds = %64
  %85 = load i32, ptr %11, align 4
  %86 = load i32, ptr %8, align 4
  %87 = mul nsw i32 %85, %86
  store i32 %87, ptr %4, align 4
  store i32 1, ptr %13, align 4
  br label %88

88:                                               ; preds = %84, %83
  call void @llvm.lifetime.end.p0(i64 4, ptr %11) #7
  call void @llvm.lifetime.end.p0(i64 4, ptr %10) #7
  call void @llvm.lifetime.end.p0(i64 8, ptr %9) #7
  call void @llvm.lifetime.end.p0(i64 4, ptr %8) #7
  %89 = load i32, ptr %4, align 4
  ret i32 %89
}