; Function Attrs: nounwind uwtable
define internal i32 @ALSA_RecordDevice(ptr noundef readonly captures(none) %0, ptr noundef %1, i32 noundef %2) #0 {
  %4 = getelementptr inbounds nuw i8, ptr %0, i64 96
  %5 = load i32, ptr %4, align 8
  %6 = lshr i32 %5, 3
  %7 = and i32 %6, 31
  %8 = getelementptr inbounds nuw i8, ptr %0, i64 100
  %9 = load i32, ptr %8, align 4
  %10 = mul i32 %7, %9
  %11 = load ptr, ptr @ALSA_snd_pcm_avail, align 8
  %12 = getelementptr inbounds nuw i8, ptr %0, i64 200
  %13 = load ptr, ptr %12, align 8
  %14 = load ptr, ptr %13, align 8
  %15 = tail call i64 %11(ptr noundef %14) #8
  %16 = sdiv i32 %2, %10
  %17 = sext i32 %16 to i64
  %18 = tail call i64 @llvm.smin.i64(i64 %15, i64 %17)
  %19 = load ptr, ptr @ALSA_snd_pcm_readi, align 8
  %20 = load ptr, ptr %12, align 8
  %21 = load ptr, ptr %20, align 8
  %sext = shl i64 %18, 32
  %22 = ashr exact i64 %sext, 32
  %23 = tail call i64 %19(ptr noundef %21, ptr noundef %1, i64 noundef %22) #8
  %24 = trunc i64 %23 to i32
  %25 = icmp slt i32 %24, 0
  br i1 %25, label %26, label %35

26:                                               ; preds = %3
  %27 = load ptr, ptr @ALSA_snd_pcm_recover, align 8
  %28 = load ptr, ptr %12, align 8
  %29 = load ptr, ptr %28, align 8
  %30 = tail call i32 %27(ptr noundef %29, i32 noundef %24, i32 noundef 0) #8
  %31 = icmp slt i32 %30, 0
  br i1 %31, label %32, label %37

32:                                               ; preds = %26
  %33 = load ptr, ptr @ALSA_snd_strerror, align 8
  %34 = tail call ptr %33(i32 noundef %24) #8
  tail call void (i32, ptr, ...) @SDL_LogError_REAL(i32 noundef 4, ptr noundef nonnull @.str.120, ptr noundef %34) #8
  br label %37

35:                                               ; preds = %3
  %36 = mul nsw i32 %10, %24
  br label %37

37:                                               ; preds = %32, %26, %35
  %.1 = phi i32 [ %36, %35 ], [ -1, %32 ], [ 0, %26 ]
  ret i32 %.1
}